Certificate:
    Data:
        Version: 3 (0x2)
        Serial Number:
            94:29:c3:40:6d:83:f7:e4:be:68:e7:62:b9:af:72:b7
        Signature Algorithm: ecdsa-with-SHA256
        Issuer: CN=cn_ilkwmDkedAfFURkP
        Validity
            Not Before: May 27 16:10:49 2023 GMT
            Not After : Aug 29 16:10:49 2025 GMT
        Subject: CN=pc-home
        Subject Public Key Info:
            Public Key Algorithm: id-ecPublicKey
                Public-Key: (256 bit)
                pub:
                    04:80:89:ac:c7:8c:1c:02:d4:16:a7:02:17:05:25:
                    43:ba:c8:95:ab:44:95:a6:ec:90:4d:ce:87:74:96:
                    b1:1e:c7:35:84:87:b5:e0:6e:68:e3:8d:36:3c:41:
                    68:c9:e4:3e:19:54:c3:cf:77:b7:67:f9:df:35:3b:
                    f5:13:3e:cd:5c
                ASN1 OID: prime256v1
                NIST CURVE: P-256
        X509v3 extensions:
            X509v3 Basic Constraints: 
                CA:FALSE
            X509v3 Subject Key Identifier: 
                4B:78:E0:74:38:BA:1A:BE:FA:E7:50:D6:9B:FF:3B:CE:3F:37:B8:5C
            X509v3 Authority Key Identifier: 
                keyid:3E:52:86:B4:A8:20:35:F1:0C:AC:89:A3:44:9C:7D:6C:53:28:40:CB
                DirName:/CN=cn_ilkwmDkedAfFURkP
                serial:5B:41:CE:AE:45:E9:4D:5E:54:25:83:51:CA:CE:7E:18:2B:23:25:1C

            X509v3 Extended Key Usage: 
                TLS Web Client Authentication
            X509v3 Key Usage: 
                Digital Signature
    Signature Algorithm: ecdsa-with-SHA256
         30:44:02:20:27:4e:24:38:b1:63:a5:a2:17:18:cf:70:a6:5f:
         4a:ae:81:d0:0d:61:9a:1b:c7:ee:65:50:e3:2a:f4:94:2b:eb:
         02:20:6e:77:51:c7:86:0d:25:78:8a:f3:b9:71:8e:c4:a9:68:
         38:10:16:2a:a6:ff:01:fa:ee:58:c1:c2:ed:26:d9:28
-----BEGIN CERTIFICATE-----
MIIB2TCCAYCgAwIBAgIRAJQpw0Btg/fkvmjnYrmvcrcwCgYIKoZIzj0EAwIwHjEc
MBoGA1UEAwwTY25faWxrd21Ea2VkQWZGVVJrUDAeFw0yMzA1MjcxNjEwNDlaFw0y
NTA4MjkxNjEwNDlaMBIxEDAOBgNVBAMMB3BjLWhvbWUwWTATBgcqhkjOPQIBBggq
hkjOPQMBBwNCAASAiazHjBwC1BanAhcFJUO6yJWrRJWm7JBNzod0lrEexzWEh7Xg
bmjjjTY8QWjJ5D4ZVMPPd7dn+d81O/UTPs1co4GqMIGnMAkGA1UdEwQCMAAwHQYD
VR0OBBYEFEt44HQ4uhq++udQ1pv/O84/N7hcMFkGA1UdIwRSMFCAFD5ShrSoIDXx
DKyJo0ScfWxTKEDLoSKkIDAeMRwwGgYDVQQDDBNjbl9pbGt3bURrZWRBZkZVUmtQ
ghRbQc6uRelNXlQlg1HKzn4YKyMlHDATBgNVHSUEDDAKBggrBgEFBQcDAjALBgNV
HQ8EBAMCB4AwCgYIKoZIzj0EAwIDRwAwRAIgJ04kOLFjpaIXGM9wpl9KroHQDWGa
G8fuZVDjKvSUK+sCIG53UceGDSV4ivO5cY7EqWg4EBYqpv8B+u5YwcLtJtko
-----END CERTIFICATE-----
